target datalayout = "e-m:e-p270:32:32-p271:32:32-p272:64:64-i64:64-i128:128-f80:128-n8:16:32:64-S128"
target triple = "x86_64-pc-linux-gnu"

%struct.UConverterLoadArgs = type { i32, i32, i8, i8, i16, i32, ptr, ptr, ptr }
%struct.UConverterNamePieces = type { [60 x i8], [157 x i8], i32 }

; Function Attrs: inlinehint mustprogress nounwind uwtable
define internal noundef signext i8 @_ZL9U_FAILURE10UErrorCode(i32 noundef %0) #3 {
  %2 = alloca i32, align 4
  store i32 %0, ptr %2, align 4, !tbaa !9
  %3 = load i32, ptr %2, align 4, !tbaa !9
  %4 = icmp sgt i32 %3, 0
  %5 = zext i1 %4 to i8
  ret i8 %5
}

; Function Attrs: mustprogress uwtable
define ptr @ucnv_createConverterFromPackage_77(ptr noundef %0, ptr noundef %1, ptr noundef %2) #0 {
  %4 = alloca ptr, align 8
  %5 = alloca ptr, align 8
  %6 = alloca ptr, align 8
  %7 = alloca ptr, align 8
  %8 = alloca ptr, align 8
  %9 = alloca ptr, align 8
  %10 = alloca %struct.UConverterNamePieces, align 4
  %11 = alloca %struct.UConverterLoadArgs, align 8
  %12 = alloca i32, align 4
  store ptr %0, ptr %5, align 8, !tbaa !31
  store ptr %1, ptr %6, align 8, !tbaa !31
  store ptr %2, ptr %7, align 8, !tbaa !8
  call void @llvm.lifetime.start.p0(i64 8, ptr %8) #12
  call void @llvm.lifetime.start.p0(i64 8, ptr %9) #12
  call void @llvm.lifetime.start.p0(i64 224, ptr %10) #12
  call void @llvm.lifetime.start.p0(i64 40, ptr %11) #12
  call void @llvm.memset.p0.i64(ptr align 8 %11, i8 0, i64 40, i1 false)
  %13 = getelementptr inbounds %struct.UConverterLoadArgs, ptr %11, i32 0, i32 0
  store i32 40, ptr %13, align 8
  %14 = load ptr, ptr %7, align 8, !tbaa !8
  %15 = load i32, ptr %14, align 4, !tbaa !9
  %16 = call noundef signext i8 @_ZL9U_FAILURE10UErrorCode(i32 noundef %15)
  %17 = icmp ne i8 %16, 0
  br i1 %17, label %18, label %19

18:                                               ; preds = %3
  store ptr null, ptr %4, align 8
  store i32 1, ptr %12, align 4
  br label %55

19:                                               ; preds = %3
  %20 = getelementptr inbounds nuw %struct.UConverterNamePieces, ptr %10, i32 0, i32 0
  %21 = getelementptr inbounds [60 x i8], ptr %20, i64 0, i64 0
  store i8 0, ptr %21, align 4, !tbaa !16
  %22 = getelementptr inbounds nuw %struct.UConverterNamePieces, ptr %10, i32 0, i32 1
  %23 = getelementptr inbounds [157 x i8], ptr %22, i64 0, i64 0
  store i8 0, ptr %23, align 4, !tbaa !16
  %24 = getelementptr inbounds nuw %struct.UConverterNamePieces, ptr %10, i32 0, i32 2
  store i32 0, ptr %24, align 4, !tbaa !41
  %25 = load ptr, ptr %6, align 8, !tbaa !31
  %26 = load ptr, ptr %7, align 8, !tbaa !8
  call void @_ZL21parseConverterOptionsPKcP20UConverterNamePiecesP18UConverterLoadArgsP10UErrorCode(ptr noundef %25, ptr noundef %10, ptr noundef %11, ptr noundef %26)
  %27 = load ptr, ptr %7, align 8, !tbaa !8
  %28 = load i32, ptr %27, align 4, !tbaa !9
  %29 = call noundef signext i8 @_ZL9U_FAILURE10UErrorCode(i32 noundef %28)
  %30 = icmp ne i8 %29, 0
  br i1 %30, label %31, label %32

31:                                               ; preds = %19
  store ptr null, ptr %4, align 8
  store i32 1, ptr %12, align 4
  br label %55

32:                                               ; preds = %19
  %33 = getelementptr inbounds nuw %struct.UConverterLoadArgs, ptr %11, i32 0, i32 1
  store i32 1, ptr %33, align 4, !tbaa !45
  %34 = load ptr, ptr %5, align 8, !tbaa !31
  %35 = getelementptr inbounds nuw %struct.UConverterLoadArgs, ptr %11, i32 0, i32 6
  store ptr %34, ptr %35, align 8, !tbaa !11
  %36 = load ptr, ptr %7, align 8, !tbaa !8
  %37 = call noundef ptr @_ZL23createConverterFromFileP18UConverterLoadArgsP10UErrorCode(ptr noundef %11, ptr noundef %36)
  store ptr %37, ptr %9, align 8, !tbaa !18
  %38 = load ptr, ptr %7, align 8, !tbaa !8
  %39 = load i32, ptr %38, align 4, !tbaa !9
  %40 = call noundef signext i8 @_ZL9U_FAILURE10UErrorCode(i32 noundef %39)
  %41 = icmp ne i8 %40, 0
  br i1 %41, label %42, label %43

42:                                               ; preds = %32
  store ptr null, ptr %4, align 8
  store i32 1, ptr %12, align 4
  br label %55

43:                                               ; preds = %32
  %44 = load ptr, ptr %9, align 8, !tbaa !18
  %45 = load ptr, ptr %7, align 8, !tbaa !8
  %46 = call ptr @ucnv_createConverterFromSharedData_77(ptr noundef null, ptr noundef %44, ptr noundef %11, ptr noundef %45)
  store ptr %46, ptr %8, align 8, !tbaa !56
  %47 = load ptr, ptr %7, align 8, !tbaa !8
  %48 = load i32, ptr %47, align 4, !tbaa !9
  %49 = call noundef signext i8 @_ZL9U_FAILURE10UErrorCode(i32 noundef %48)
  %50 = icmp ne i8 %49, 0
  br i1 %50, label %51, label %53

51:                                               ; preds = %43
  %52 = load ptr, ptr %8, align 8, !tbaa !56
  call void @ucnv_close_77(ptr noundef %52)
  store ptr null, ptr %4, align 8
  store i32 1, ptr %12, align 4
  br label %55

53:                                               ; preds = %43
  %54 = load ptr, ptr %8, align 8, !tbaa !56
  store ptr %54, ptr %4, align 8
  store i32 1, ptr %12, align 4
  br label %55

55:                                               ; preds = %53, %51, %42, %31, %18
  call void @llvm.lifetime.end.p0(i64 40, ptr %11) #12
  call void @llvm.lifetime.end.p0(i64 224, ptr %10) #12
  call void @llvm.lifetime.end.p0(i64 8, ptr %9) #12
  call void @llvm.lifetime.end.p0(i64 8, ptr %8) #12
  %56 = load ptr, ptr %4, align 8
  ret ptr %56
}