; Function Attrs: mustprogress uwtable
define noundef ptr @ucnv_createConverterFromPackage_77(ptr noundef %0, ptr noundef %1, ptr noundef %2) local_unnamed_addr #0 {
  %4 = alloca %struct.UConverterNamePieces, align 4
  %5 = alloca %struct.UConverterLoadArgs, align 8
  call void @llvm.lifetime.start.p0(i64 224, ptr nonnull %4) #11
  call void @llvm.lifetime.start.p0(i64 40, ptr nonnull %5) #11
  %6 = getelementptr inbounds nuw i8, ptr %5, i64 8
  call void @llvm.memset.p0.i64(ptr noundef nonnull align 8 dereferenceable(32) %6, i8 0, i64 32, i1 false)
  store i32 40, ptr %5, align 8
  %7 = load i32, ptr %2, align 4, !tbaa !13
  %8 = icmp slt i32 %7, 1
  br i1 %8, label %9, label %25

9:                                                ; preds = %3
  store i8 0, ptr %4, align 4, !tbaa !19
  %10 = getelementptr inbounds nuw i8, ptr %4, i64 60
  store i8 0, ptr %10, align 4, !tbaa !19
  %11 = getelementptr inbounds nuw i8, ptr %4, i64 220
  store i32 0, ptr %11, align 4, !tbaa !45
  call fastcc void @_ZL21parseConverterOptionsPKcP20UConverterNamePiecesP18UConverterLoadArgsP10UErrorCode(ptr noundef %1, ptr noundef %4, ptr noundef %5, ptr noundef nonnull %2)
  %12 = load i32, ptr %2, align 4, !tbaa !13
  %13 = icmp slt i32 %12, 1
  br i1 %13, label %14, label %25

14:                                               ; preds = %9
  %15 = getelementptr inbounds nuw i8, ptr %5, i64 4
  store i32 1, ptr %15, align 4, !tbaa !54
  %16 = getelementptr inbounds nuw i8, ptr %5, i64 16
  store ptr %0, ptr %16, align 8, !tbaa !15
  %17 = call fastcc noundef ptr @_ZL23createConverterFromFileP18UConverterLoadArgsP10UErrorCode(ptr noundef nonnull %5, ptr noundef nonnull %2)
  %18 = load i32, ptr %2, align 4, !tbaa !13
  %19 = icmp slt i32 %18, 1
  br i1 %19, label %20, label %25

20:                                               ; preds = %14
  %21 = call ptr @ucnv_createConverterFromSharedData_77(ptr noundef null, ptr noundef %17, ptr noundef nonnull %5, ptr noundef nonnull %2)
  %22 = load i32, ptr %2, align 4, !tbaa !13
  %23 = icmp slt i32 %22, 1
  br i1 %23, label %25, label %24

24:                                               ; preds = %20
  call void @ucnv_close_77(ptr noundef %21)
  br label %25

25:                                               ; preds = %20, %14, %9, %3, %24
  %.0 = phi ptr [ null, %24 ], [ null, %3 ], [ null, %9 ], [ null, %14 ], [ %21, %20 ]
  call void @llvm.lifetime.end.p0(i64 40, ptr nonnull %5) #11
  call void @llvm.lifetime.end.p0(i64 224, ptr nonnull %4) #11
  ret ptr %.0
}